target datalayout = "e-m:e-p270:32:32-p271:32:32-p272:64:64-i64:64-i128:128-f80:128-n8:16:32:64-S128"
target triple = "x86_64-pc-linux-gnu"

%struct.ColorMapObject = type { i32, i32, i8, ptr }
%struct.SavedImage = type { %struct.GifImageDesc, ptr, i32, ptr }
%struct.GifImageDesc = type { i32, i32, i32, i32, i8, ptr }
%struct.ExtensionBlock = type { i32, ptr, i32 }
%struct.GifFileType = type { i32, i32, i32, i32, i8, ptr, i32, %struct.GifImageDesc, ptr, i32, ptr, i32, ptr, ptr }

; Function Attrs: nounwind uwtable
define hidden void @GifFreeExtensions(ptr noundef %0, ptr noundef %1) #0 {
  %3 = alloca ptr, align 8
  %4 = alloca ptr, align 8
  %5 = alloca ptr, align 8
  store ptr %0, ptr %3, align 8
  store ptr %1, ptr %4, align 8
  %6 = load ptr, ptr %4, align 8
  %7 = load ptr, ptr %6, align 8
  %8 = icmp eq ptr %7, null
  br i1 %8, label %9, label %10

9:                                                ; preds = %2
  br label %34

10:                                               ; preds = %2
  %11 = load ptr, ptr %4, align 8
  %12 = load ptr, ptr %11, align 8
  store ptr %12, ptr %5, align 8
  br label %13

13:                                               ; preds = %26, %10
  %14 = load ptr, ptr %5, align 8
  %15 = load ptr, ptr %4, align 8
  %16 = load ptr, ptr %15, align 8
  %17 = load ptr, ptr %3, align 8
  %18 = load i32, ptr %17, align 4
  %19 = sext i32 %18 to i64
  %20 = getelementptr inbounds %struct.ExtensionBlock, ptr %16, i64 %19
  %21 = icmp ult ptr %14, %20
  br i1 %21, label %22, label %29

22:                                               ; preds = %13
  %23 = load ptr, ptr %5, align 8
  %24 = getelementptr inbounds %struct.ExtensionBlock, ptr %23, i32 0, i32 1
  %25 = load ptr, ptr %24, align 8
  call void @free(ptr noundef %25) #10
  br label %26

26:                                               ; preds = %22
  %27 = load ptr, ptr %5, align 8
  %28 = getelementptr inbounds %struct.ExtensionBlock, ptr %27, i32 1
  store ptr %28, ptr %5, align 8
  br label %13, !llvm.loop !14

29:                                               ; preds = %13
  %30 = load ptr, ptr %4, align 8
  %31 = load ptr, ptr %30, align 8
  call void @free(ptr noundef %31) #10
  %32 = load ptr, ptr %4, align 8
  store ptr null, ptr %32, align 8
  %33 = load ptr, ptr %3, align 8
  store i32 0, ptr %33, align 4
  br label %34

34:                                               ; preds = %29, %9
  ret void
}

; Function Attrs: nounwind uwtable
define hidden void @GifFreeMapObject(ptr noundef %0) #0 {
  %2 = alloca ptr, align 8
  store ptr %0, ptr %2, align 8
  %3 = load ptr, ptr %2, align 8
  %4 = icmp ne ptr %3, null
  br i1 %4, label %5, label %10

5:                                                ; preds = %1
  %6 = load ptr, ptr %2, align 8
  %7 = getelementptr inbounds %struct.ColorMapObject, ptr %6, i32 0, i32 3
  %8 = load ptr, ptr %7, align 8
  call void @free(ptr noundef %8) #10
  %9 = load ptr, ptr %2, align 8
  call void @free(ptr noundef %9) #10
  br label %10

10:                                               ; preds = %5, %1
  ret void
}

; Function Attrs: nounwind uwtable
define hidden void @FreeLastSavedImage(ptr noundef %0) #0 {
  %2 = alloca ptr, align 8
  %3 = alloca ptr, align 8
  store ptr %0, ptr %2, align 8
  %4 = load ptr, ptr %2, align 8
  %5 = icmp eq ptr %4, null
  br i1 %5, label %11, label %6

6:                                                ; preds = %1
  %7 = load ptr, ptr %2, align 8
  %8 = getelementptr inbounds %struct.GifFileType, ptr %7, i32 0, i32 8
  %9 = load ptr, ptr %8, align 8
  %10 = icmp eq ptr %9, null
  br i1 %10, label %11, label %12

11:                                               ; preds = %6, %1
  br label %52

12:                                               ; preds = %6
  %13 = load ptr, ptr %2, align 8
  %14 = getelementptr inbounds %struct.GifFileType, ptr %13, i32 0, i32 6
  %15 = load i32, ptr %14, align 8
  %16 = add nsw i32 %15, -1
  store i32 %16, ptr %14, align 8
  %17 = load ptr, ptr %2, align 8
  %18 = getelementptr inbounds %struct.GifFileType, ptr %17, i32 0, i32 8
  %19 = load ptr, ptr %18, align 8
  %20 = load ptr, ptr %2, align 8
  %21 = getelementptr inbounds %struct.GifFileType, ptr %20, i32 0, i32 6
  %22 = load i32, ptr %21, align 8
  %23 = sext i32 %22 to i64
  %24 = getelementptr inbounds %struct.SavedImage, ptr %19, i64 %23
  store ptr %24, ptr %3, align 8
  %25 = load ptr, ptr %3, align 8
  %26 = getelementptr inbounds %struct.SavedImage, ptr %25, i32 0, i32 0
  %27 = getelementptr inbounds %struct.GifImageDesc, ptr %26, i32 0, i32 5
  %28 = load ptr, ptr %27, align 8
  %29 = icmp ne ptr %28, null
  br i1 %29, label %30, label %38

30:                                               ; preds = %12
  %31 = load ptr, ptr %3, align 8
  %32 = getelementptr inbounds %struct.SavedImage, ptr %31, i32 0, i32 0
  %33 = getelementptr inbounds %struct.GifImageDesc, ptr %32, i32 0, i32 5
  %34 = load ptr, ptr %33, align 8
  call void @GifFreeMapObject(ptr noundef %34)
  %35 = load ptr, ptr %3, align 8
  %36 = getelementptr inbounds %struct.SavedImage, ptr %35, i32 0, i32 0
  %37 = getelementptr inbounds %struct.GifImageDesc, ptr %36, i32 0, i32 5
  store ptr null, ptr %37, align 8
  br label %38

38:                                               ; preds = %30, %12
  %39 = load ptr, ptr %3, align 8
  %40 = getelementptr inbounds %struct.SavedImage, ptr %39, i32 0, i32 1
  %41 = load ptr, ptr %40, align 8
  %42 = icmp ne ptr %41, null
  br i1 %42, label %43, label %47

43:                                               ; preds = %38
  %44 = load ptr, ptr %3, align 8
  %45 = getelementptr inbounds %struct.SavedImage, ptr %44, i32 0, i32 1
  %46 = load ptr, ptr %45, align 8
  call void @free(ptr noundef %46) #10
  br label %47

47:                                               ; preds = %43, %38
  %48 = load ptr, ptr %3, align 8
  %49 = getelementptr inbounds %struct.SavedImage, ptr %48, i32 0, i32 2
  %50 = load ptr, ptr %3, align 8
  %51 = getelementptr inbounds %struct.SavedImage, ptr %50, i32 0, i32 3
  call void @GifFreeExtensions(ptr noundef %49, ptr noundef %51)
  br label %52

52:                                               ; preds = %47, %11
  ret void
}