; Function Attrs: nounwind uwtable
define hidden void @FreeLastSavedImage(ptr noundef %0) local_unnamed_addr #1 {
  %2 = icmp eq ptr %0, null
  br i1 %2, label %GifFreeExtensions.exit, label %3

3:                                                ; preds = %1
  %4 = getelementptr inbounds i8, ptr %0, i64 72
  %5 = load ptr, ptr %4, align 8
  %6 = icmp eq ptr %5, null
  br i1 %6, label %GifFreeExtensions.exit, label %7

7:                                                ; preds = %3
  %8 = getelementptr inbounds i8, ptr %0, i64 32
  %9 = load i32, ptr %8, align 8
  %10 = add nsw i32 %9, -1
  store i32 %10, ptr %8, align 8
  %11 = sext i32 %10 to i64
  %12 = getelementptr inbounds %struct.SavedImage, ptr %5, i64 %11
  %13 = getelementptr inbounds i8, ptr %12, i64 24
  %14 = load ptr, ptr %13, align 8
  %.not = icmp eq ptr %14, null
  br i1 %.not, label %17, label %GifFreeMapObject.exit

GifFreeMapObject.exit:                            ; preds = %7
  %15 = getelementptr inbounds i8, ptr %14, i64 16
  %16 = load ptr, ptr %15, align 8
  tail call void @free(ptr noundef %16) #14
  tail call void @free(ptr noundef nonnull %14) #14
  store ptr null, ptr %13, align 8
  br label %17

17:                                               ; preds = %GifFreeMapObject.exit, %7
  %18 = getelementptr inbounds i8, ptr %12, i64 32
  %19 = load ptr, ptr %18, align 8
  %.not14 = icmp eq ptr %19, null
  br i1 %.not14, label %21, label %20

20:                                               ; preds = %17
  tail call void @free(ptr noundef nonnull %19) #14
  br label %21

21:                                               ; preds = %20, %17
  %22 = getelementptr inbounds i8, ptr %12, i64 40
  %23 = getelementptr inbounds i8, ptr %12, i64 48
  %24 = load ptr, ptr %23, align 8
  %25 = icmp eq ptr %24, null
  br i1 %25, label %GifFreeExtensions.exit, label %.preheader.i

.preheader.i:                                     ; preds = %21
  %26 = load i32, ptr %22, align 4
  %27 = icmp sgt i32 %26, 0
  br i1 %27, label %.lr.ph.i, label %._crit_edge.i

.lr.ph.i:                                         ; preds = %.preheader.i, %.lr.ph.i
  %.011.i = phi ptr [ %30, %.lr.ph.i ], [ %24, %.preheader.i ]
  %28 = getelementptr inbounds i8, ptr %.011.i, i64 8
  %29 = load ptr, ptr %28, align 8
  tail call void @free(ptr noundef %29) #14
  %30 = getelementptr inbounds i8, ptr %.011.i, i64 24
  %31 = load ptr, ptr %23, align 8
  %32 = load i32, ptr %22, align 4
  %33 = sext i32 %32 to i64
  %34 = getelementptr inbounds %struct.ExtensionBlock, ptr %31, i64 %33
  %35 = icmp ult ptr %30, %34
  br i1 %35, label %.lr.ph.i, label %._crit_edge.i, !llvm.loop !13

._crit_edge.i:                                    ; preds = %.lr.ph.i, %.preheader.i
  %.lcssa.i = phi ptr [ %24, %.preheader.i ], [ %31, %.lr.ph.i ]
  tail call void @free(ptr noundef %.lcssa.i) #14
  store ptr null, ptr %23, align 8
  store i32 0, ptr %22, align 4
  br label %GifFreeExtensions.exit

GifFreeExtensions.exit:                           ; preds = %._crit_edge.i, %21, %1, %3
  ret void
}